(i__main__
LogFile
p0
(dp1
S'_installed_files'
p2
(dp3
S'../../../PhysicsAnalysis/JetTagging/JetTagAlgs/BTagging/x86_64-slc6-gcc48-opt/libBTagging.so'
p4
S'../../../../../InstallArea/x86_64-slc6-gcc48-opt/lib/libBTagging.so'
p5
sS'../../../PhysicsAnalysis/JetTagging/JetTagAlgs/BTagging/x86_64-slc6-gcc48-opt/libBTagging.so.debug'
p6
S'../../../../../InstallArea/x86_64-slc6-gcc48-opt/lib/libBTagging.so.debug'
p7
sS'../../PhysicsAnalysis/JetTagging/JetTagAlgs/BTagging/genConf/BTagging'
p8
(dp9
S'../../../PhysicsAnalysis/JetTagging/JetTagAlgs/BTagging/genConf/BTagging/BTaggingConf.py'
p10
S'../../../../../InstallArea/python/BTagging/BTaggingConf.py'
p11
ssS'../../../PhysicsAnalysis/JetTagging/JetTagAlgs/BTagging/x86_64-slc6-gcc48-opt/libBTaggingLib.so'
p12
S'../../../../../InstallArea/x86_64-slc6-gcc48-opt/lib/libBTaggingLib.so'
p13
sS'../../../PhysicsAnalysis/JetTagging/JetTagAlgs/BTagging/x86_64-slc6-gcc48-opt/libBTaggingLib.so.debug'
p14
S'../../../../../InstallArea/x86_64-slc6-gcc48-opt/lib/libBTaggingLib.so.debug'
p15
ssb.