(i__main__
LogFile
p0
(dp1
S'_installed_files'
p2
(dp3
S'../../../PhysicsAnalysis/JetTagging/JetTagCalibration/x86_64-slc6-gcc48-opt/libJetTagCalibration.so.debug'
p4
S'../../../../InstallArea/x86_64-slc6-gcc48-opt/lib/libJetTagCalibration.so.debug'
p5
sS'../../../PhysicsAnalysis/JetTagging/JetTagCalibration/x86_64-slc6-gcc48-opt/libJetTagCalibration.so'
p6
S'../../../../InstallArea/x86_64-slc6-gcc48-opt/lib/libJetTagCalibration.so'
p7
sS'../../../../../../../../../../../../cvmfs/atlas.cern.ch/repo/sw/software/x86_64-slc6-gcc48-opt/20.1.5/GAUDI/v25r3p2-lcg72a/GaudiPolicy/cmt/fragments/__init__.py'
p8
S'../../../../InstallArea/python/JetTagCalibration/__init__.py'
p9
sS'../../../PhysicsAnalysis/JetTagging/JetTagCalibration/x86_64-slc6-gcc48-opt/libJetTagCalibrationLib.so.debug'
p10
S'../../../../InstallArea/x86_64-slc6-gcc48-opt/lib/libJetTagCalibrationLib.so.debug'
p11
sS'../../PhysicsAnalysis/JetTagging/JetTagCalibration/genConf/JetTagCalibration'
p12
(dp13
S'../../../PhysicsAnalysis/JetTagging/JetTagCalibration/genConf/JetTagCalibration/JetTagCalibrationConf.py'
p14
S'../../../../InstallArea/python/JetTagCalibration/JetTagCalibrationConf.py'
p15
ssS'../../../PhysicsAnalysis/JetTagging/JetTagCalibration/x86_64-slc6-gcc48-opt/libJetTagCalibrationLib.so'
p16
S'../../../../InstallArea/x86_64-slc6-gcc48-opt/lib/libJetTagCalibrationLib.so'
p17
ssb.