(i__main__
LogFile
p0
(dp1
S'_installed_files'
p2
(dp3
S'../../PhysicsAnalysis/DerivationFramework/DerivationFrameworkJetEtMiss/genConf/DerivationFrameworkJetEtMiss'
p4
(dp5
S'../../../PhysicsAnalysis/DerivationFramework/DerivationFrameworkJetEtMiss/genConf/DerivationFrameworkJetEtMiss/DerivationFrameworkJetEtMissConf.py'
p6
S'../../../../InstallArea/python/DerivationFrameworkJetEtMiss/DerivationFrameworkJetEtMissConf.py'
p7
ssS'../../../PhysicsAnalysis/DerivationFramework/DerivationFrameworkJetEtMiss/x86_64-slc6-gcc48-opt/libDerivationFrameworkJetEtMissLib.so'
p8
S'../../../../InstallArea/x86_64-slc6-gcc48-opt/lib/libDerivationFrameworkJetEtMissLib.so'
p9
sS'../../../PhysicsAnalysis/DerivationFramework/DerivationFrameworkJetEtMiss/x86_64-slc6-gcc48-opt/libDerivationFrameworkJetEtMiss.so.debug'
p10
S'../../../../InstallArea/x86_64-slc6-gcc48-opt/lib/libDerivationFrameworkJetEtMiss.so.debug'
p11
sS'../../../PhysicsAnalysis/DerivationFramework/DerivationFrameworkJetEtMiss/x86_64-slc6-gcc48-opt/libDerivationFrameworkJetEtMiss.so'
p12
S'../../../../InstallArea/x86_64-slc6-gcc48-opt/lib/libDerivationFrameworkJetEtMiss.so'
p13
sS'../../../PhysicsAnalysis/DerivationFramework/DerivationFrameworkJetEtMiss/x86_64-slc6-gcc48-opt/libDerivationFrameworkJetEtMissLib.so.debug'
p14
S'../../../../InstallArea/x86_64-slc6-gcc48-opt/lib/libDerivationFrameworkJetEtMissLib.so.debug'
p15
ssb.