(i__main__
LogFile
p0
(dp1
S'_installed_files'
p2
(dp3
S'../../../PhysicsAnalysis/DerivationFramework/DerivationFrameworkJetEtMiss/x86_64-slc6-gcc48-opt/libDerivationFrameworkJetEtMissLib.so.debug'
p4
S'../../../../InstallArea/x86_64-slc6-gcc48-opt/lib/libDerivationFrameworkJetEtMissLib.so.debug'
p5
sS'../../../PhysicsAnalysis/DerivationFramework/DerivationFrameworkJetEtMiss/x86_64-slc6-gcc48-opt/libDerivationFrameworkJetEtMissLib.so'
p6
S'../../../../InstallArea/x86_64-slc6-gcc48-opt/lib/libDerivationFrameworkJetEtMissLib.so'
p7
sS'../../../PhysicsAnalysis/DerivationFramework/DerivationFrameworkJetEtMiss/x86_64-slc6-gcc48-opt/libDerivationFrameworkJetEtMiss.so.debug'
p8
S'../../../../InstallArea/x86_64-slc6-gcc48-opt/lib/libDerivationFrameworkJetEtMiss.so.debug'
p9
sS'../../../PhysicsAnalysis/DerivationFramework/DerivationFrameworkJetEtMiss/x86_64-slc6-gcc48-opt/libDerivationFrameworkJetEtMiss.so'
p10
S'../../../../InstallArea/x86_64-slc6-gcc48-opt/lib/libDerivationFrameworkJetEtMiss.so'
p11
sS'../../PhysicsAnalysis/DerivationFramework/DerivationFrameworkJetEtMiss/genConf/DerivationFrameworkJetEtMiss'
p12
(dp13
S'../../../PhysicsAnalysis/DerivationFramework/DerivationFrameworkJetEtMiss/genConf/DerivationFrameworkJetEtMiss/DerivationFrameworkJetEtMissConf.py'
p14
S'../../../../InstallArea/python/DerivationFrameworkJetEtMiss/DerivationFrameworkJetEtMissConf.py'
p15
sssb.