(i__main__
LogFile
p0
(dp1
S'_installed_files'
p2
(dp3
S'../../../Reconstruction/Jet/JetSubStructureMomentTools/x86_64-slc6-gcc48-opt/libJetSubStructureMomentToolsLib.so.debug'
p4
S'../../../../InstallArea/x86_64-slc6-gcc48-opt/lib/libJetSubStructureMomentToolsLib.so.debug'
p5
sS'../../../../../../../../../../../../cvmfs/atlas.cern.ch/repo/sw/software/x86_64-slc6-gcc48-opt/20.1.5/GAUDI/v25r3p2-lcg72a/GaudiPolicy/cmt/fragments/__init__.py'
p6
S'../../../../InstallArea/python/JetSubStructureMomentTools/__init__.py'
p7
sS'../../../Reconstruction/Jet/JetSubStructureMomentTools/x86_64-slc6-gcc48-opt/libJetSubStructureMomentTools.so.debug'
p8
S'../../../../InstallArea/x86_64-slc6-gcc48-opt/lib/libJetSubStructureMomentTools.so.debug'
p9
sS'../../../Reconstruction/Jet/JetSubStructureMomentTools/x86_64-slc6-gcc48-opt/libJetSubStructureMomentTools.so'
p10
S'../../../../InstallArea/x86_64-slc6-gcc48-opt/lib/libJetSubStructureMomentTools.so'
p11
sS'../../../Reconstruction/Jet/JetSubStructureMomentTools/x86_64-slc6-gcc48-opt/libJetSubStructureMomentToolsLib.so'
p12
S'../../../../InstallArea/x86_64-slc6-gcc48-opt/lib/libJetSubStructureMomentToolsLib.so'
p13
sS'../../Reconstruction/Jet/JetSubStructureMomentTools/genConf/JetSubStructureMomentTools'
p14
(dp15
S'../../../Reconstruction/Jet/JetSubStructureMomentTools/genConf/JetSubStructureMomentTools/JetSubStructureMomentToolsConf.py'
p16
S'../../../../InstallArea/python/JetSubStructureMomentTools/JetSubStructureMomentToolsConf.py'
p17
sssb.