(i__main__
LogFile
p0
(dp1
S'_installed_files'
p2
(dp3
S'../../../Reconstruction/Jet/JetSubStructureUtils/x86_64-slc6-gcc48-opt/libJetSubStructureUtils.so'
p4
S'../../../../InstallArea/x86_64-slc6-gcc48-opt/lib/libJetSubStructureUtils.so'
p5
sS'../../../Reconstruction/Jet/JetSubStructureUtils/x86_64-slc6-gcc48-opt/libJetSubStructureUtils.so.debug'
p6
S'../../../../InstallArea/x86_64-slc6-gcc48-opt/lib/libJetSubStructureUtils.so.debug'
p7
ssb.