(i__main__
LogFile
p0
(dp1
S'_installed_files'
p2
(dp3
S'../../../PhysicsAnalysis/JetTagging/JetTagTools/x86_64-slc6-gcc48-opt/libJetTagToolsLib.so.debug'
p4
S'../../../../InstallArea/x86_64-slc6-gcc48-opt/lib/libJetTagToolsLib.so.debug'
p5
sS'../../PhysicsAnalysis/JetTagging/JetTagTools/genConf/JetTagTools'
p6
(dp7
S'../../../PhysicsAnalysis/JetTagging/JetTagTools/genConf/JetTagTools/JetTagToolsConf.py'
p8
S'../../../../InstallArea/python/JetTagTools/JetTagToolsConf.py'
p9
ssS'../../../PhysicsAnalysis/JetTagging/JetTagTools/x86_64-slc6-gcc48-opt/libJetTagTools.so.debug'
p10
S'../../../../InstallArea/x86_64-slc6-gcc48-opt/lib/libJetTagTools.so.debug'
p11
sS'../../../../../../../../../../../../cvmfs/atlas.cern.ch/repo/sw/software/x86_64-slc6-gcc48-opt/20.1.5/GAUDI/v25r3p2-lcg72a/GaudiPolicy/cmt/fragments/__init__.py'
p12
S'../../../../InstallArea/python/JetTagTools/__init__.py'
p13
sS'../../../PhysicsAnalysis/JetTagging/JetTagTools/x86_64-slc6-gcc48-opt/libJetTagTools.so'
p14
S'../../../../InstallArea/x86_64-slc6-gcc48-opt/lib/libJetTagTools.so'
p15
sS'../../../PhysicsAnalysis/JetTagging/JetTagTools/x86_64-slc6-gcc48-opt/libJetTagToolsLib.so'
p16
S'../../../../InstallArea/x86_64-slc6-gcc48-opt/lib/libJetTagToolsLib.so'
p17
ssb.